target datalayout = "e-m:e-p270:32:32-p271:32:32-p272:64:64-i64:64-i128:128-f80:128-n8:16:32:64-S128"
target triple = "x86_64-pc-linux-gnu"

@degree = internal global double 0.000000e+00, align 8

; Function Attrs: nounwind uwtable
define internal void @swapx(ptr noundef %0, ptr noundef %1) #0 {
  %3 = alloca ptr, align 8
  %4 = alloca ptr, align 8
  %5 = alloca double, align 8
  store ptr %0, ptr %3, align 8, !tbaa !24
  store ptr %1, ptr %4, align 8, !tbaa !24
  call void @llvm.lifetime.start.p0(i64 8, ptr %5) #6
  %6 = load ptr, ptr %3, align 8, !tbaa !24
  %7 = load double, ptr %6, align 8, !tbaa !8
  store double %7, ptr %5, align 8, !tbaa !8
  %8 = load ptr, ptr %4, align 8, !tbaa !24
  %9 = load double, ptr %8, align 8, !tbaa !8
  %10 = load ptr, ptr %3, align 8, !tbaa !24
  store double %9, ptr %10, align 8, !tbaa !8
  %11 = load double, ptr %5, align 8, !tbaa !8
  %12 = load ptr, ptr %4, align 8, !tbaa !24
  store double %11, ptr %12, align 8, !tbaa !8
  call void @llvm.lifetime.end.p0(i64 8, ptr %5) #6
  ret void
}

; Function Attrs: nounwind uwtable
define internal double @atan2dx(double noundef %0, double noundef %1) #0 {
  %3 = alloca double, align 8
  %4 = alloca double, align 8
  %5 = alloca i32, align 4
  %6 = alloca double, align 8
  store double %0, ptr %3, align 8, !tbaa !8
  store double %1, ptr %4, align 8, !tbaa !8
  call void @llvm.lifetime.start.p0(i64 4, ptr %5) #6
  store i32 0, ptr %5, align 4, !tbaa !10
  call void @llvm.lifetime.start.p0(i64 8, ptr %6) #6
  %7 = load double, ptr %3, align 8, !tbaa !8
  %8 = call double @llvm.fabs.f64(double %7)
  %9 = load double, ptr %4, align 8, !tbaa !8
  %10 = call double @llvm.fabs.f64(double %9)
  %11 = fcmp ogt double %8, %10
  br i1 %11, label %12, label %13

12:                                               ; preds = %2
  call void @swapx(ptr noundef %4, ptr noundef %3)
  store i32 2, ptr %5, align 4, !tbaa !10
  br label %13

13:                                               ; preds = %12, %2
  %14 = load double, ptr %4, align 8, !tbaa !8
  %15 = bitcast double %14 to i64
  %16 = icmp slt i64 %15, 0
  br i1 %16, label %17, label %22

17:                                               ; preds = %13
  %18 = load double, ptr %4, align 8, !tbaa !8
  %19 = fneg double %18
  store double %19, ptr %4, align 8, !tbaa !8
  %20 = load i32, ptr %5, align 4, !tbaa !10
  %21 = add nsw i32 %20, 1
  store i32 %21, ptr %5, align 4, !tbaa !10
  br label %22

22:                                               ; preds = %17, %13
  %23 = load double, ptr %3, align 8, !tbaa !8
  %24 = load double, ptr %4, align 8, !tbaa !8
  %25 = call double @atan2(double noundef %23, double noundef %24) #6, !tbaa !10
  %26 = load double, ptr @degree, align 8, !tbaa !8
  %27 = fdiv double %25, %26
  store double %27, ptr %6, align 8, !tbaa !8
  %28 = load i32, ptr %5, align 4, !tbaa !10
  switch i32 %28, label %40 [
    i32 1, label %29
    i32 2, label %34
    i32 3, label %37
  ]

29:                                               ; preds = %22
  %30 = load double, ptr %3, align 8, !tbaa !8
  %31 = call double @llvm.copysign.f64(double 1.800000e+02, double %30)
  %32 = load double, ptr %6, align 8, !tbaa !8
  %33 = fsub double %31, %32
  store double %33, ptr %6, align 8, !tbaa !8
  br label %41

34:                                               ; preds = %22
  %35 = load double, ptr %6, align 8, !tbaa !8
  %36 = fsub double 9.000000e+01, %35
  store double %36, ptr %6, align 8, !tbaa !8
  br label %41

37:                                               ; preds = %22
  %38 = load double, ptr %6, align 8, !tbaa !8
  %39 = fadd double -9.000000e+01, %38
  store double %39, ptr %6, align 8, !tbaa !8
  br label %41

40:                                               ; preds = %22
  br label %41

41:                                               ; preds = %40, %37, %34, %29
  %42 = load double, ptr %6, align 8, !tbaa !8
  call void @llvm.lifetime.end.p0(i64 8, ptr %6) #6
  call void @llvm.lifetime.end.p0(i64 4, ptr %5) #6
  ret double %42
}

; Function Attrs: nounwind uwtable
define double @geod_geninverse(ptr noundef %0, double noundef %1, double noundef %2, double noundef %3, double noundef %4, ptr noundef %5, ptr noundef %6, ptr noundef %7, ptr noundef %8, ptr noundef %9, ptr noundef %10, ptr noundef %11) #0 {
  %13 = alloca ptr, align 8
  %14 = alloca double, align 8
  %15 = alloca double, align 8
  %16 = alloca double, align 8
  %17 = alloca double, align 8
  %18 = alloca ptr, align 8
  %19 = alloca ptr, align 8
  %20 = alloca ptr, align 8
  %21 = alloca ptr, align 8
  %22 = alloca ptr, align 8
  %23 = alloca ptr, align 8
  %24 = alloca ptr, align 8
  %25 = alloca double, align 8
  %26 = alloca double, align 8
  %27 = alloca double, align 8
  %28 = alloca double, align 8
  %29 = alloca double, align 8
  store ptr %0, ptr %13, align 8, !tbaa !3
  store double %1, ptr %14, align 8, !tbaa !8
  store double %2, ptr %15, align 8, !tbaa !8
  store double %3, ptr %16, align 8, !tbaa !8
  store double %4, ptr %17, align 8, !tbaa !8
  store ptr %5, ptr %18, align 8, !tbaa !24
  store ptr %6, ptr %19, align 8, !tbaa !24
  store ptr %7, ptr %20, align 8, !tbaa !24
  store ptr %8, ptr %21, align 8, !tbaa !24
  store ptr %9, ptr %22, align 8, !tbaa !24
  store ptr %10, ptr %23, align 8, !tbaa !24
  store ptr %11, ptr %24, align 8, !tbaa !24
  call void @llvm.lifetime.start.p0(i64 8, ptr %25) #6
  call void @llvm.lifetime.start.p0(i64 8, ptr %26) #6
  call void @llvm.lifetime.start.p0(i64 8, ptr %27) #6
  call void @llvm.lifetime.start.p0(i64 8, ptr %28) #6
  call void @llvm.lifetime.start.p0(i64 8, ptr %29) #6
  %30 = load ptr, ptr %13, align 8, !tbaa !3
  %31 = load double, ptr %14, align 8, !tbaa !8
  %32 = load double, ptr %15, align 8, !tbaa !8
  %33 = load double, ptr %16, align 8, !tbaa !8
  %34 = load double, ptr %17, align 8, !tbaa !8
  %35 = load ptr, ptr %18, align 8, !tbaa !24
  %36 = load ptr, ptr %21, align 8, !tbaa !24
  %37 = load ptr, ptr %22, align 8, !tbaa !24
  %38 = load ptr, ptr %23, align 8, !tbaa !24
  %39 = load ptr, ptr %24, align 8, !tbaa !24
  %40 = call double @geod_geninverse_int(ptr noundef %30, double noundef %31, double noundef %32, double noundef %33, double noundef %34, ptr noundef %35, ptr noundef %25, ptr noundef %26, ptr noundef %27, ptr noundef %28, ptr noundef %36, ptr noundef %37, ptr noundef %38, ptr noundef %39)
  store double %40, ptr %29, align 8, !tbaa !8
  %41 = load ptr, ptr %19, align 8, !tbaa !24
  %42 = icmp ne ptr %41, null
  br i1 %42, label %43, label %48

43:                                               ; preds = %12
  %44 = load double, ptr %25, align 8, !tbaa !8
  %45 = load double, ptr %26, align 8, !tbaa !8
  %46 = call double @atan2dx(double noundef %44, double noundef %45)
  %47 = load ptr, ptr %19, align 8, !tbaa !24
  store double %46, ptr %47, align 8, !tbaa !8
  br label %48

48:                                               ; preds = %43, %12
  %49 = load ptr, ptr %20, align 8, !tbaa !24
  %50 = icmp ne ptr %49, null
  br i1 %50, label %51, label %56

51:                                               ; preds = %48
  %52 = load double, ptr %27, align 8, !tbaa !8
  %53 = load double, ptr %28, align 8, !tbaa !8
  %54 = call double @atan2dx(double noundef %52, double noundef %53)
  %55 = load ptr, ptr %20, align 8, !tbaa !24
  store double %54, ptr %55, align 8, !tbaa !8
  br label %56

56:                                               ; preds = %51, %48
  %57 = load double, ptr %29, align 8, !tbaa !8
  call void @llvm.lifetime.end.p0(i64 8, ptr %29) #6
  call void @llvm.lifetime.end.p0(i64 8, ptr %28) #6
  call void @llvm.lifetime.end.p0(i64 8, ptr %27) #6
  call void @llvm.lifetime.end.p0(i64 8, ptr %26) #6
  call void @llvm.lifetime.end.p0(i64 8, ptr %25) #6
  ret double %57
}