; Function Attrs: nofree nounwind uwtable
define double @geod_geninverse(ptr noundef readonly captures(none) %0, double noundef %1, double noundef %2, double noundef %3, double noundef %4, ptr noundef %5, ptr noundef writeonly %6, ptr noundef writeonly %7, ptr noundef %8, ptr noundef %9, ptr noundef %10, ptr noundef %11) local_unnamed_addr #3 {
  %13 = alloca double, align 8
  %14 = alloca double, align 8
  %15 = alloca double, align 8
  %16 = alloca double, align 8
  call void @llvm.lifetime.start.p0(i64 8, ptr nonnull %13) #12
  call void @llvm.lifetime.start.p0(i64 8, ptr nonnull %14) #12
  call void @llvm.lifetime.start.p0(i64 8, ptr nonnull %15) #12
  call void @llvm.lifetime.start.p0(i64 8, ptr nonnull %16) #12
  %17 = call fastcc double @geod_geninverse_int(ptr noundef %0, double noundef %1, double noundef %2, double noundef %3, double noundef %4, ptr noundef %5, ptr noundef %13, ptr noundef %14, ptr noundef nonnull %15, ptr noundef nonnull %16, ptr noundef %8, ptr noundef %9, ptr noundef %10, ptr noundef %11)
  %.not = icmp eq ptr %6, null
  br i1 %.not, label %36, label %18

18:                                               ; preds = %12
  %19 = load double, ptr %13, align 8, !tbaa !3
  %20 = load double, ptr %14, align 8, !tbaa !3
  %21 = call double @llvm.fabs.f64(double %19)
  %22 = call double @llvm.fabs.f64(double %20)
  %23 = fcmp ogt double %21, %22
  %.013.i = select i1 %23, double %20, double %19
  %.011.i = select i1 %23, double %19, double %20
  %.05.i = select i1 %23, i32 2, i32 0
  %24 = bitcast double %.011.i to i64
  %.112.i = call double @llvm.fabs.f64(double %.011.i)
  %.lobit.i = lshr i64 %24, 63
  %25 = trunc nuw nsw i64 %.lobit.i to i32
  %.1.i = or disjoint i32 %.05.i, %25
  %26 = call double @atan2(double noundef %.013.i, double noundef %.112.i) #12, !tbaa !15
  %27 = load double, ptr @degree, align 8, !tbaa !3
  %28 = fdiv double %26, %27
  switch i32 %.1.i, label %default.unreachable [
    i32 1, label %29
    i32 2, label %32
    i32 3, label %34
    i32 0, label %atan2dx.exit
  ]

29:                                               ; preds = %18
  %30 = call double @llvm.copysign.f64(double 1.800000e+02, double %.013.i)
  %31 = fsub double %30, %28
  br label %atan2dx.exit

32:                                               ; preds = %18
  %33 = fsub double 9.000000e+01, %28
  br label %atan2dx.exit

34:                                               ; preds = %18
  %35 = fadd double %28, -9.000000e+01
  br label %atan2dx.exit

default.unreachable:                              ; preds = %37, %18
  unreachable

atan2dx.exit:                                     ; preds = %18, %29, %32, %34
  %.0.i = phi double [ %28, %18 ], [ %35, %34 ], [ %33, %32 ], [ %31, %29 ]
  store double %.0.i, ptr %6, align 8, !tbaa !3
  br label %36

36:                                               ; preds = %atan2dx.exit, %12
  %.not16 = icmp eq ptr %7, null
  br i1 %.not16, label %55, label %37

37:                                               ; preds = %36
  %38 = load double, ptr %15, align 8, !tbaa !3
  %39 = load double, ptr %16, align 8, !tbaa !3
  %40 = call double @llvm.fabs.f64(double %38)
  %41 = call double @llvm.fabs.f64(double %39)
  %42 = fcmp ogt double %40, %41
  %.013.i17 = select i1 %42, double %39, double %38
  %.011.i18 = select i1 %42, double %38, double %39
  %.05.i19 = select i1 %42, i32 2, i32 0
  %43 = bitcast double %.011.i18 to i64
  %.112.i20 = call double @llvm.fabs.f64(double %.011.i18)
  %.lobit.i21 = lshr i64 %43, 63
  %44 = trunc nuw nsw i64 %.lobit.i21 to i32
  %.1.i22 = or disjoint i32 %.05.i19, %44
  %45 = call double @atan2(double noundef %.013.i17, double noundef %.112.i20) #12, !tbaa !15
  %46 = load double, ptr @degree, align 8, !tbaa !3
  %47 = fdiv double %45, %46
  switch i32 %.1.i22, label %default.unreachable [
    i32 1, label %48
    i32 2, label %51
    i32 3, label %53
    i32 0, label %atan2dx.exit25
  ]

48:                                               ; preds = %37
  %49 = call double @llvm.copysign.f64(double 1.800000e+02, double %.013.i17)
  %50 = fsub double %49, %47
  br label %atan2dx.exit25

51:                                               ; preds = %37
  %52 = fsub double 9.000000e+01, %47
  br label %atan2dx.exit25

53:                                               ; preds = %37
  %54 = fadd double %47, -9.000000e+01
  br label %atan2dx.exit25

atan2dx.exit25:                                   ; preds = %37, %48, %51, %53
  %.0.i23 = phi double [ %47, %37 ], [ %54, %53 ], [ %52, %51 ], [ %50, %48 ]
  store double %.0.i23, ptr %7, align 8, !tbaa !3
  br label %55

55:                                               ; preds = %atan2dx.exit25, %36
  call void @llvm.lifetime.end.p0(i64 8, ptr nonnull %16) #12
  call void @llvm.lifetime.end.p0(i64 8, ptr nonnull %15) #12
  call void @llvm.lifetime.end.p0(i64 8, ptr nonnull %14) #12
  call void @llvm.lifetime.end.p0(i64 8, ptr nonnull %13) #12
  ret double %17
}